(lp0
S'world'
p1
aS'europe'
p2
aS'asia'
p3
aS'australia'
p4
aS'africa'
p5
aS'north america'
p6
aS'south america'
p7
aS'oceania'
p8
aS'antarctica'
p9
aS'australasia'
p10
aS'caribbean'
p11
aS'middle east'
p12
aS'western asia'
p13
aS'eastern asia'
p14
aS'southeastern asia'
p15
aS'western europe'
p16
aS'eastern europe'
p17
aS'u.s.'
p18
aS'u.s.a.'
p19
aS'america'
p20
aS'afghanistan'
p21
aS'\xc3\x85lan islands'
p22
aS'albania'
p23
aS'algeria'
p24
aS'american samoa'
p25
aS'andorra'
p26
aS'angola'
p27
aS'anguilla'
p28
aS'antarctica'
p29
aS'antigua and barbuda'
p30
aS'argentina'
p31
aS'armenia'
p32
aS'aruba'
p33
aS'australia'
p34
aS'austria'
p35
aS'azerbaijan'
p36
aS'bahamas'
p37
aS'bahrain'
p38
aS'bangladesh'
p39
aS'barbados'
p40
aS'belarus'
p41
aS'belgium'
p42
aS'belize'
p43
aS'benin'
p44
aS'bermuda'
p45
aS'bhutan'
p46
aS'bolivia'
p47
aS'bonaire, sint eustatius and saba'
p48
aS'bosnia and herzegovina'
p49
aS'botswana'
p50
aS'brazil'
p51
aS'british indian ocean territory'
p52
aS'brunei darussalam'
p53
aS'bulgaria'
p54
aS'burkina faso'
p55
aS'burundi'
p56
aS'cambodia'
p57
aS'cameroon'
p58
aS'canada'
p59
aS'cape verde'
p60
aS'cayman islands'
p61
aS'central african republic'
p62
aS'chad'
p63
aS'chile'
p64
aS'china'
p65
aS'christmas island'
p66
aS'cocos (keeling) islands'
p67
aS'colombia'
p68
aS'comoros'
p69
aS'congo'
p70
aS'congo, the democratic republic of the'
p71
aS'cook islands'
p72
aS'costa rica'
p73
aS"c\xc3\xb4te d'ivoire"
p74
aS'croatia'
p75
aS'cuba'
p76
aS'cura\xc3\xa7ao'
p77
aS'cyprus'
p78
aS'czech republic'
p79
aS'denmark'
p80
aS'djibouti'
p81
aS'dominica'
p82
aS'dominican republic'
p83
aS'ecuador'
p84
aS'egypt'
p85
aS'el salvador'
p86
aS'equatorial guinea'
p87
aS'eritrea'
p88
aS'estonia'
p89
aS'ethiopia'
p90
aS'falkland islands (malvinas)'
p91
aS'faroe islands'
p92
aS'fiji'
p93
aS'finland'
p94
aS'france'
p95
aS'french guiana'
p96
aS'french polynesia'
p97
aS'french southern territories'
p98
aS'gabon'
p99
aS'gambia'
p100
aS'georgia'
p101
aS'germany'
p102
aS'ghana'
p103
aS'gibraltar'
p104
aS'greece'
p105
aS'greenland'
p106
aS'grenada'
p107
aS'guadeloupe'
p108
aS'guam'
p109
aS'guatemala'
p110
aS'guernsey'
p111
aS'guinea'
p112
aS'guinea-bissau'
p113
aS'guyana'
p114
aS'haiti'
p115
aS'heard island and mcdonald islands'
p116
aS'holy see (vatican city state)'
p117
aS'honduras'
p118
aS'hong kong'
p119
aS'hungary'
p120
aS'iceland'
p121
aS'india'
p122
aS'indonesia'
p123
aS'installations in international waters'
p124
aS'iran, islamic republic of'
p125
aS'iraq'
p126
aS'ireland'
p127
aS'isle of man'
p128
aS'israel'
p129
aS'italy'
p130
aS'jamaica'
p131
aS'japan'
p132
aS'jersey'
p133
aS'jordan'
p134
aS'kazakhstan'
p135
aS'kenya'
p136
aS'kiribati'
p137
aS"korea, democratic people's republic of"
p138
aS'korea, republic of'
p139
aS'kuwait'
p140
aS'kyrgyzstan'
p141
aS"lao people's democratic republic"
p142
aS'latvia'
p143
aS'lebanon'
p144
aS'lesotho'
p145
aS'liberia'
p146
aS'libya'
p147
aS'liechtenstein'
p148
aS'lithuania'
p149
aS'luxembourg'
p150
aS'macao'
p151
aS'macedonia, the former yugoslav republic of'
p152
aS'madagascar'
p153
aS'malawi'
p154
aS'malaysia'
p155
aS'maldives'
p156
aS'mali'
p157
aS'malta'
p158
aS'marshall islands'
p159
aS'martinique'
p160
aS'mauritania'
p161
aS'mauritius'
p162
aS'mayotte'
p163
aS'mexico'
p164
aS'micronesia, federated states of'
p165
aS'moldova, republic of'
p166
aS'monaco'
p167
aS'mongolia'
p168
aS'montenegro'
p169
aS'montserrat'
p170
aS'morocco'
p171
aS'mozambique'
p172
aS'myanmar'
p173
aS'namibia'
p174
aS'nauru'
p175
aS'nepal'
p176
aS'netherlands'
p177
aS'new caledonia'
p178
aS'new zealand'
p179
aS'nicaragua'
p180
aS'niger'
p181
aS'nigeria'
p182
aS'niue'
p183
aS'norfolk island'
p184
aS'northern mariana islands'
p185
aS'norway'
p186
aS'oman'
p187
aS'pakistan'
p188
aS'palau'
p189
aS'palestine, state of'
p190
aS'panama'
p191
aS'papua new guinea'
p192
aS'paraguay'
p193
aS'peru'
p194
aS'philippines'
p195
aS'pitcairn'
p196
aS'poland'
p197
aS'portugal'
p198
aS'puerto rico'
p199
aS'qatar'
p200
aS'reunion'
p201
aS'romania'
p202
aS'russian federation'
p203
aS'rwanda'
p204
aS'saint barth\xc3\xa9lemy'
p205
aS'saint helena, ascension and tristan da cunha'
p206
aS'saint kitts and nevis'
p207
aS'saint lucia'
p208
aS'saint martin (french part)'
p209
aS'saint pierre and miquelon'
p210
aS'saint vincent and the grenadines'
p211
aS'samoa'
p212
aS'san marino'
p213
aS'sao tome and principe'
p214
aS'saudi arabia'
p215
aS'senegal'
p216
aS'serbia'
p217
aS'seychelles'
p218
aS'sierra leone'
p219
aS'singapore'
p220
aS'sint maarten (dutch part)'
p221
aS'slovakia'
p222
aS'slovenia'
p223
aS'solomon islands'
p224
aS'somalia'
p225
aS'south africa'
p226
aS'south georgia and the south sandwich islands'
p227
aS'south sudan'
p228
aS'spain'
p229
aS'sri lanka'
p230
aS'sudan'
p231
aS'suriname'
p232
aS'svalbard and jan mayen'
p233
aS'swaziland'
p234
aS'sweden'
p235
aS'switzerland'
p236
aS'syrian arab republic'
p237
aS'taiwan, province of china'
p238
aS'tajikistan'
p239
aS'tanzania, united republic of'
p240
aS'thailand'
p241
aS'timor-leste'
p242
aS'togo'
p243
aS'tokelau'
p244
aS'tonga'
p245
aS'trinidad and tobago'
p246
aS'tunisia'
p247
aS'turkey'
p248
aS'turkmenistan'
p249
aS'turks and caicos islands'
p250
aS'tuvalu'
p251
aS'uganda'
p252
aS'ukraine'
p253
aS'united arab emirates'
p254
aS'united kingdom'
p255
aS'united states'
p256
aS'united states minor outlying islands'
p257
aS'uruguay'
p258
aS'uzbekistan'
p259
aS'vanuatu'
p260
aS'venezuela'
p261
aS'viet nam'
p262
aS'virgin islands, british'
p263
aS'virgin islands, u.s.'
p264
aS'wallis and futuna'
p265
aS'western sahara'
p266
aS'yemen'
p267
aS'zambia'
p268
aS'zimbabwe'
p269
a.