(lp0
S'world'
p1
aS'europe'
p2
aS'asia'
p3
aS'australia'
p4
aS'africa'
p5
aS'north america'
p6
aS'south america'
p7
aS'oceania'
p8
aS'antarctica'
p9
aS'australasia'
p10
aS'caribbean'
p11
aS'middle east'
p12
aS'western asia'
p13
aS'eastern asia'
p14
aS'southeastern asia'
p15
aS'western europe'
p16
aS'eastern europe'
p17
aS'u.s.'
p18
aS'u.s.a.'
p19
aS'america'
p20
aS'afghanistan'
p21
aS'\xc3\xa5lan islands'
p22
aS'albania'
p23
aS'algeria'
p24
aS'american samoa'
p25
aS'andorra'
p26
aS'angola'
p27
aS'anguilla'
p28
aS'antarctica'
p29
aS'antigua and barbuda'
p30
aS'argentina'
p31
aS'armenia'
p32
aS'aruba'
p33
aS'australia'
p34
aS'austria'
p35
aS'azerbaijan'
p36
aS'bahamas'
p37
aS'bahrain'
p38
aS'bangladesh'
p39
aS'barbados'
p40
aS'belarus'
p41
aS'belgium'
p42
aS'belize'
p43
aS'benin'
p44
aS'bermuda'
p45
aS'bhutan'
p46
aS'bolivia'
p47
aS'bonaire'
p48
aS'bosnia and herzegovina'
p49
aS'botswana'
p50
aS'brazil'
p51
aS'british indian ocean territory'
p52
aS'brunei darussalam'
p53
aS'bulgaria'
p54
aS'burkina faso'
p55
aS'burundi'
p56
aS'cambodia'
p57
aS'cameroon'
p58
aS'canada'
p59
aS'cape verde'
p60
aS'cayman islands'
p61
aS'central african republic'
p62
aS'chad'
p63
aS'chile'
p64
aS'china'
p65
aS'christmas island'
p66
aS'cocos islands'
p67
aS'colombia'
p68
aS'comoros'
p69
aS'congo'
p70
aS'congo, the democratic republic of the'
p71
aS'cook islands'
p72
aS'costa rica'
p73
aS"c\xc3\xb4te d'ivoire"
p74
aS'croatia'
p75
aS'cuba'
p76
aS'cura\xc3\xa7ao'
p77
aS'cyprus'
p78
aS'czech republic'
p79
aS'denmark'
p80
aS'djibouti'
p81
aS'dominica'
p82
aS'dominican republic'
p83
aS'ecuador'
p84
aS'egypt'
p85
aS'el salvador'
p86
aS'equatorial guinea'
p87
aS'eritrea'
p88
aS'estonia'
p89
aS'ethiopia'
p90
aS'falkland islands (malvinas)'
p91
aS'faroe islands'
p92
aS'fiji'
p93
aS'finland'
p94
aS'france'
p95
aS'french guiana'
p96
aS'french polynesia'
p97
aS'french southern territories'
p98
aS'gabon'
p99
aS'gambia'
p100
aS'georgia'
p101
aS'germany'
p102
aS'ghana'
p103
aS'gibraltar'
p104
aS'greece'
p105
aS'greenland'
p106
aS'grenada'
p107
aS'guadeloupe'
p108
aS'guam'
p109
aS'guatemala'
p110
aS'guernsey'
p111
aS'guinea'
p112
aS'guinea-bissau'
p113
aS'guyana'
p114
aS'haiti'
p115
aS'heard island and mcdonald islands'
p116
aS'holy see (vatican city state)'
p117
aS'honduras'
p118
aS'hong kong'
p119
aS'hungary'
p120
aS'iceland'
p121
aS'india'
p122
aS'indonesia'
p123
aS'installations in international waters'
p124
aS'iran'
p125
aS'iraq'
p126
aS'ireland'
p127
aS'isle of man'
p128
aS'israel'
p129
aS'italy'
p130
aS'jamaica'
p131
aS'japan'
p132
aS'jersey'
p133
aS'jordan'
p134
aS'kazakhstan'
p135
aS'kenya'
p136
aS'kiribati'
p137
aS'korea, republic of'
p138
aS'kuwait'
p139
aS'kyrgyzstan'
p140
aS"lao people's democratic republic"
p141
aS'latvia'
p142
aS'lebanon'
p143
aS'lesotho'
p144
aS'liberia'
p145
aS'libya'
p146
aS'liechtenstein'
p147
aS'lithuania'
p148
aS'luxembourg'
p149
aS'macao'
p150
aS'macedonia, the former yugoslav republic of'
p151
aS'madagascar'
p152
aS'malawi'
p153
aS'malaysia'
p154
aS'maldives'
p155
aS'mali'
p156
aS'malta'
p157
aS'marshall islands'
p158
aS'martinique'
p159
aS'mauritania'
p160
aS'mauritius'
p161
aS'mayotte'
p162
aS'mexico'
p163
aS'micronesia, federated states of'
p164
aS'moldova, republic of'
p165
aS'monaco'
p166
aS'mongolia'
p167
aS'montenegro'
p168
aS'montserrat'
p169
aS'morocco'
p170
aS'mozambique'
p171
aS'myanmar'
p172
aS'namibia'
p173
aS'nauru'
p174
aS'nepal'
p175
aS'netherlands'
p176
aS'new caledonia'
p177
aS'new zealand'
p178
aS'nicaragua'
p179
aS'niger'
p180
aS'nigeria'
p181
aS'niue'
p182
aS'norfolk island'
p183
aS'northern mariana islands'
p184
aS'norway'
p185
aS'oman'
p186
aS'pakistan'
p187
aS'palau'
p188
aS'palestine, state of'
p189
aS'panama'
p190
aS'papua new guinea'
p191
aS'paraguay'
p192
aS'peru'
p193
aS'philippines'
p194
aS'pitcairn'
p195
aS'poland'
p196
aS'portugal'
p197
aS'puerto rico'
p198
aS'qatar'
p199
aS'reunion'
p200
aS'romania'
p201
aS'russian federation'
p202
aS'rwanda'
p203
aS'saint barth\xc3\xa9lemy'
p204
aS'saint helena, ascension and tristan da cunha'
p205
aS'saint kitts and nevis'
p206
aS'saint lucia'
p207
aS'saint martin'
p208
aS'saint pierre and miquelon'
p209
aS'saint vincent and the grenadines'
p210
aS'samoa'
p211
aS'san marino'
p212
aS'sao tome and principe'
p213
aS'saudi arabia'
p214
aS'senegal'
p215
aS'serbia'
p216
aS'seychelles'
p217
aS'sierra leone'
p218
aS'singapore'
p219
aS'sint maarten (dutch part)'
p220
aS'slovakia'
p221
aS'slovenia'
p222
aS'solomon islands'
p223
aS'somalia'
p224
aS'south africa'
p225
aS'south georgia and the south sandwich islands'
p226
aS'south sudan'
p227
aS'spain'
p228
aS'sri lanka'
p229
aS'sudan'
p230
aS'suriname'
p231
aS'svalbard and jan mayen'
p232
aS'swaziland'
p233
aS'sweden'
p234
aS'switzerland'
p235
aS'syrian arab republic'
p236
aS'taiwan, province of china'
p237
aS'tajikistan'
p238
aS'tanzania, united republic of'
p239
aS'thailand'
p240
aS'timor-leste'
p241
aS'togo'
p242
aS'tokelau'
p243
aS'tonga'
p244
aS'trinidad and tobago'
p245
aS'tunisia'
p246
aS'turkey'
p247
aS'turkmenistan'
p248
aS'turks and caicos islands'
p249
aS'tuvalu'
p250
aS'uganda'
p251
aS'ukraine'
p252
aS'united arab emirates'
p253
aS'united kingdom'
p254
aS'united states'
p255
aS'united states minor outlying islands'
p256
aS'uruguay'
p257
aS'uzbekistan'
p258
aS'vanuatu'
p259
aS'venezuela'
p260
aS'viet nam'
p261
aS'vietnam'
p262
aS'virgin islands, british'
p263
aS'virgin islands, u.s.'
p264
aS'wallis and futuna'
p265
aS'western sahara'
p266
aS'yemen'
p267
aS'zambia'
p268
aS'zimbabwe'
p269
aS'uk'
p270
aS'usa'
p271
aS'u.s.a.'
p272
aS'england'
p273
aS'scotland'
p274
aS'ireland'
p275
aS'san marco'
p276
aS'south'
p277
aS'north'
p278
aS'southbank'
p279
aS'goya'
p280
aS'island'
p281
aS'the isle'
p282
aS'farsi'
p283
aS'atlantic'
p284
aS'baker'
p285
aS'paget'
p286
aS'henry'
p287
aS'moore'
p288
aS'harrison'
p289
aS'mediterranean'
p290
aS'royal'
p291
aS'harris'
p292
aS'grey'
p293
aS'ocean'
p294
aS'burns'
p295
aS'paradjanov'
p296
aS'canadian'
p297
aS'stanely'
p298
aS'bosch'
p299
aS'tate'
p300
aS'graham'
p301
aS'solomon'
p302
aS'whitney'
p303
aS'moma'
p304
aS'how'
p305
aS'horizon'
p306
aS'collins'
p307
aS'clark'
p308
aS'whitney'
p309
aS'de chiara'
p310
aS'knoebel'
p311
aS'cisernos'
p312
aS'eugene'
p313
aS'wadsworth'
p314
aS'pace'
p315
aS'santa'
p316
aS'philip'
p317
aS'morris'
p318
aS'sala'
p319
aS'george'
p320
aS'gilbert'
p321
aS'artes'
p322
aS'ars'
p323
aS'les'
p324
aS'council'
p325
aS'center'
p326
aS'centre'
p327
aS'college'
p328
aS'media'
p329
aS'grant'
p330
aS'grants'
p331
aS'natascha sadr haghighian'
p332
aS'rirkrit tiravanija'
p333
aS'yugoslavia'
p334
aS'museion'
p335
aS'institute'
p336
aS'newsstand'
p337
aS'newsstands'
p338
aS'latin america'
p339
aS'ibereoamerica'
p340
aS'portuguese'
p341
aS'cristian'
p342
aS'portikus'
p343
aS'angels'
p344
aS'buchloh'
p345
aS'ica'
p346
aS'continental'
p347
aS'american'
p348
aS'platz'
p349
aS'phelps'
p350
aS'cisernos'
p351
aS'kustverein'
p352
aS'alice'
p353
aS'moca'
p354
aS'asia pacific'
p355
aS'arthub asia'
p356
aS'thompson'
p357
aS'alliance'
p358
aS'wells fargo'
p359
aS'uk'
p360
aS'us'
p361
aS'usa'
p362
aS'u.s.a.'
p363
aS'front'
p364
aS'artspace'
p365
aS'artforum'
p366
aS'norton'
p367
aS'export'
p368
aS'england'
p369
aS'dewey'
p370
aS'union'
p371
aS'yugoslavia'
p372
aS'flora'
p373
aS'palm'
p374
aS'Alabama'
p375
aS'Alaska'
p376
aS'Arizona'
p377
aS'Arkansas'
p378
aS'California'
p379
aS'Colorado'
p380
aS'Connecticut'
p381
aS'Delaware'
p382
aS'Florida'
p383
aS'Georgia'
p384
aS'Hawaii'
p385
aS'Idaho'
p386
aS'Illinois'
p387
aS'Indiana'
p388
aS'Iowa'
p389
aS'Kansas'
p390
aS'Kentucky'
p391
aS'Louisiana'
p392
aS'Maine'
p393
aS'Maryland'
p394
aS'Massachusetts'
p395
aS'Michigan'
p396
aS'Minnesota'
p397
aS'Mississippi'
p398
aS'Missouri'
p399
aS'Montana'
p400
aS'Nebraska'
p401
aS'Nevada'
p402
aS'New Hampshire'
p403
aS'New Jersey'
p404
aS'New Mexico'
p405
aS'North Carolina'
p406
aS'North Dakota'
p407
aS'Ohio'
p408
aS'Oklahoma'
p409
aS'Oregon'
p410
aS'Pennsylvania'
p411
aS'Rhode Island'
p412
aS'South Carolina'
p413
aS'South Dakota'
p414
aS'Tennessee'
p415
aS'Texas'
p416
aS'Utah'
p417
aS'Vermont'
p418
aS'Virginia'
p419
aS'West Virginia'
p420
aS'Wisconsin'
p421
aS'Wyoming'
p422
aS'AL'
p423
aS'AK'
p424
aS'AZ'
p425
aS'AR'
p426
aS'CA'
p427
aS'CO'
p428
aS'CT'
p429
aS'DE'
p430
aS'FL'
p431
aS'GA'
p432
aS'HI'
p433
aS'ID'
p434
aS'IL'
p435
aS'IN'
p436
aS'IA'
p437
aS'KS'
p438
aS'KY'
p439
aS'ME'
p440
aS'MD'
p441
aS'MA'
p442
aS'MI'
p443
aS'MN'
p444
aS'MS'
p445
aS'MO'
p446
aS'MT'
p447
aS'NE'
p448
aS'NV'
p449
aS'NH'
p450
aS'NJ'
p451
aS'NM'
p452
aS'NY'
p453
aS'NC'
p454
aS'ND'
p455
aS'OH'
p456
aS'OK'
p457
aS'OR'
p458
aS'PA'
p459
aS'RI'
p460
aS'SC'
p461
aS'SD'
p462
aS'TN'
p463
aS'TX'
p464
aS'UT'
p465
aS'VT'
p466
aS'VA'
p467
aS'WA'
p468
aS'WV'
p469
aS'WI'
p470
aS'W'
p471
a.